target datalayout = "e-m:e-p270:32:32-p271:32:32-p272:64:64-i64:64-i128:128-f80:128-n8:16:32:64-S128"
target triple = "x86_64-pc-linux-gnu"

; Function Attrs: nounwind uwtable
define internal i32 @doubleebx(ptr noundef %0, ptr noundef %1, ptr noundef %2, i32 noundef %3) #0 {
  %5 = alloca i32, align 4
  %6 = alloca ptr, align 8
  %7 = alloca ptr, align 8
  %8 = alloca ptr, align 8
  %9 = alloca i32, align 4
  %10 = alloca i32, align 4
  %11 = alloca i32, align 4
  store ptr %0, ptr %6, align 8, !tbaa !3
  store ptr %1, ptr %7, align 8, !tbaa !10
  store ptr %2, ptr %8, align 8, !tbaa !10
  store i32 %3, ptr %9, align 4, !tbaa !8
  call void @llvm.lifetime.start.p0(i64 4, ptr %10) #6
  %12 = load ptr, ptr %7, align 8, !tbaa !10
  %13 = load i32, ptr %12, align 4, !tbaa !8
  store i32 %13, ptr %10, align 4, !tbaa !8
  %14 = load ptr, ptr %7, align 8, !tbaa !10
  %15 = load i32, ptr %14, align 4, !tbaa !8
  %16 = mul i32 %15, 2
  store i32 %16, ptr %14, align 4, !tbaa !8
  %17 = load i32, ptr %10, align 4, !tbaa !8
  %18 = and i32 %17, 2147483647
  %19 = icmp ne i32 %18, 0
  br i1 %19, label %91, label %20

20:                                               ; preds = %4
  %21 = load i32, ptr %9, align 4, !tbaa !8
  %22 = zext i32 %21 to i64
  %23 = icmp ugt i64 %22, 0
  br i1 %23, label %24, label %76

24:                                               ; preds = %20
  %25 = load i32, ptr %9, align 4, !tbaa !8
  %26 = zext i32 %25 to i64
  %27 = icmp ule i64 4, %26
  br i1 %27, label %28, label %76

28:                                               ; preds = %24
  %29 = load ptr, ptr %6, align 8, !tbaa !3
  %30 = load ptr, ptr %8, align 8, !tbaa !10
  %31 = load i32, ptr %30, align 4, !tbaa !8
  %32 = zext i32 %31 to i64
  %33 = getelementptr inbounds nuw i8, ptr %29, i64 %32
  %34 = ptrtoint ptr %33 to i64
  %35 = load ptr, ptr %6, align 8, !tbaa !3
  %36 = ptrtoint ptr %35 to i64
  %37 = icmp uge i64 %34, %36
  br i1 %37, label %38, label %76

38:                                               ; preds = %28
  %39 = load ptr, ptr %6, align 8, !tbaa !3
  %40 = load ptr, ptr %8, align 8, !tbaa !10
  %41 = load i32, ptr %40, align 4, !tbaa !8
  %42 = zext i32 %41 to i64
  %43 = getelementptr inbounds nuw i8, ptr %39, i64 %42
  %44 = ptrtoint ptr %43 to i64
  %45 = add i64 %44, 4
  %46 = load ptr, ptr %6, align 8, !tbaa !3
  %47 = ptrtoint ptr %46 to i64
  %48 = load i32, ptr %9, align 4, !tbaa !8
  %49 = zext i32 %48 to i64
  %50 = add i64 %47, %49
  %51 = icmp ule i64 %45, %50
  br i1 %51, label %52, label %76

52:                                               ; preds = %38
  %53 = load ptr, ptr %6, align 8, !tbaa !3
  %54 = load ptr, ptr %8, align 8, !tbaa !10
  %55 = load i32, ptr %54, align 4, !tbaa !8
  %56 = zext i32 %55 to i64
  %57 = getelementptr inbounds nuw i8, ptr %53, i64 %56
  %58 = ptrtoint ptr %57 to i64
  %59 = add i64 %58, 4
  %60 = load ptr, ptr %6, align 8, !tbaa !3
  %61 = ptrtoint ptr %60 to i64
  %62 = icmp ugt i64 %59, %61
  br i1 %62, label %63, label %76

63:                                               ; preds = %52
  %64 = load ptr, ptr %6, align 8, !tbaa !3
  %65 = load ptr, ptr %8, align 8, !tbaa !10
  %66 = load i32, ptr %65, align 4, !tbaa !8
  %67 = zext i32 %66 to i64
  %68 = getelementptr inbounds nuw i8, ptr %64, i64 %67
  %69 = ptrtoint ptr %68 to i64
  %70 = load ptr, ptr %6, align 8, !tbaa !3
  %71 = ptrtoint ptr %70 to i64
  %72 = load i32, ptr %9, align 4, !tbaa !8
  %73 = zext i32 %72 to i64
  %74 = add i64 %71, %73
  %75 = icmp ult i64 %69, %74
  br i1 %75, label %77, label %76

76:                                               ; preds = %63, %52, %38, %28, %24, %20
  store i32 -1, ptr %5, align 4
  store i32 1, ptr %11, align 4
  br label %94

77:                                               ; preds = %63
  %78 = load ptr, ptr %6, align 8, !tbaa !3
  %79 = load ptr, ptr %8, align 8, !tbaa !10
  %80 = load i32, ptr %79, align 4, !tbaa !8
  %81 = zext i32 %80 to i64
  %82 = getelementptr inbounds nuw i8, ptr %78, i64 %81
  %83 = load i32, ptr %82, align 1, !tbaa !12
  store i32 %83, ptr %10, align 4, !tbaa !8
  %84 = load i32, ptr %10, align 4, !tbaa !8
  %85 = mul i32 %84, 2
  %86 = add i32 %85, 1
  %87 = load ptr, ptr %7, align 8, !tbaa !10
  store i32 %86, ptr %87, align 4, !tbaa !8
  %88 = load ptr, ptr %8, align 8, !tbaa !10
  %89 = load i32, ptr %88, align 4, !tbaa !8
  %90 = add i32 %89, 4
  store i32 %90, ptr %88, align 4, !tbaa !8
  br label %91

91:                                               ; preds = %77, %4
  %92 = load i32, ptr %10, align 4, !tbaa !8
  %93 = lshr i32 %92, 31
  store i32 %93, ptr %5, align 4
  store i32 1, ptr %11, align 4
  br label %94

94:                                               ; preds = %91, %76
  call void @llvm.lifetime.end.p0(i64 4, ptr %10) #6
  %95 = load i32, ptr %5, align 4
  ret i32 %95
}