; Function Attrs: mustprogress nofree norecurse nosync nounwind willreturn memory(argmem: readwrite) uwtable
define internal fastcc range(i32 -1, 2) i32 @doubleebx(ptr noundef %0, ptr noundef nonnull captures(none) %1, ptr noundef nonnull captures(none) %2, i32 noundef %3) unnamed_addr #3 {
  %5 = load i32, ptr %1, align 4, !tbaa !6
  %6 = shl i32 %5, 1
  store i32 %6, ptr %1, align 4, !tbaa !6
  %7 = and i32 %5, 2147483647
  %.not = icmp eq i32 %7, 0
  br i1 %.not, label %8, label %27

8:                                                ; preds = %4
  %9 = icmp ugt i32 %3, 3
  br i1 %9, label %10, label %29

10:                                               ; preds = %8
  %11 = zext i32 %3 to i64
  %12 = load i32, ptr %2, align 4, !tbaa !6
  %13 = zext i32 %12 to i64
  %14 = getelementptr inbounds nuw i8, ptr %0, i64 %13
  %15 = ptrtoint ptr %14 to i64
  %16 = ptrtoint ptr %0 to i64
  %17 = add i64 %15, 4
  %18 = add i64 %11, %16
  %.not34 = icmp ule i64 %17, %18
  %19 = icmp ugt i64 %17, %16
  %or.cond = and i1 %.not34, %19
  %20 = icmp ugt i64 %18, %15
  %or.cond35 = and i1 %20, %or.cond
  br i1 %or.cond35, label %21, label %29

21:                                               ; preds = %10
  %22 = load i32, ptr %14, align 1, !tbaa !3
  %23 = shl i32 %22, 1
  %24 = or disjoint i32 %23, 1
  store i32 %24, ptr %1, align 4, !tbaa !6
  %25 = load i32, ptr %2, align 4, !tbaa !6
  %26 = add i32 %25, 4
  store i32 %26, ptr %2, align 4, !tbaa !6
  br label %27

27:                                               ; preds = %21, %4
  %.0 = phi i32 [ %5, %4 ], [ %22, %21 ]
  %28 = lshr i32 %.0, 31
  br label %29

29:                                               ; preds = %8, %10, %27
  %.027 = phi i32 [ %28, %27 ], [ -1, %10 ], [ -1, %8 ]
  ret i32 %.027
}